target datalayout = "e-m:e-p270:32:32-p271:32:32-p272:64:64-i64:64-i128:128-f80:128-n8:16:32:64-S128"
target triple = "x86_64-pc-linux-gnu"

%class.Register = type { i32 }
%class.XMMRegister = type { i32 }
%class.MachNode = type { %class.Node.base, i8, i16, ptr }
%class.Node.base = type <{ ptr, ptr, ptr, i32, i32, i32, i32, i32, i32, i32 }>
%class.MachTypeNode = type { %class.MachNode, ptr }
%class.vcompress_reg_avxNode = type { %class.MachTypeNode, [8 x ptr] }

@g_assert_poison = external global ptr, align 8
@_ZL5noreg = internal constant %class.Register { i32 -1 }, align 4
@.str.22 = private unnamed_addr constant [27 x i8] c"src/hotspot/cpu/x86/x86.ad\00", align 1
@_ZL6xnoreg = internal constant %class.XMMRegister { i32 -1 }, align 4

; Function Attrs: mustprogress nounwind uwtable
define linkonce_odr hidden void @_ZN8RegisterC2Eib(ptr noundef nonnull align 4 dereferenceable(4) %0, i32 noundef %1, i1 noundef zeroext %2) unnamed_addr #1 comdat align 2 {
  %4 = alloca ptr, align 8
  %5 = alloca i32, align 4
  %6 = alloca i8, align 1
  store ptr %0, ptr %4, align 8
  store i32 %1, ptr %5, align 4
  %7 = zext i1 %2 to i8
  store i8 %7, ptr %6, align 1
  %8 = load ptr, ptr %4, align 8
  %9 = getelementptr inbounds %class.Register, ptr %8, i32 0, i32 0
  %10 = load i32, ptr %5, align 4
  store i32 %10, ptr %9, align 4
  ret void
}

; Function Attrs: mustprogress nounwind uwtable
define linkonce_odr hidden void @_ZN11XMMRegisterC2Eib(ptr noundef nonnull align 4 dereferenceable(4) %0, i32 noundef %1, i1 noundef zeroext %2) unnamed_addr #1 comdat align 2 {
  %4 = alloca ptr, align 8
  %5 = alloca i32, align 4
  %6 = alloca i8, align 1
  store ptr %0, ptr %4, align 8
  store i32 %1, ptr %5, align 4
  %7 = zext i1 %2 to i8
  store i8 %7, ptr %6, align 1
  %8 = load ptr, ptr %4, align 8
  %9 = getelementptr inbounds %class.XMMRegister, ptr %8, i32 0, i32 0
  %10 = load i32, ptr %5, align 4
  store i32 %10, ptr %9, align 4
  ret void
}

; Function Attrs: mustprogress nounwind uwtable
define linkonce_odr hidden i32 @_Z11as_Registeri(i32 noundef %0) #1 comdat {
  %2 = alloca %class.Register, align 4
  %3 = alloca i32, align 4
  store i32 %0, ptr %3, align 4
  %4 = load i32, ptr %3, align 4
  %5 = icmp sle i32 0, %4
  br i1 %5, label %6, label %11

6:                                                ; preds = %1
  %7 = load i32, ptr %3, align 4
  %8 = icmp slt i32 %7, 32
  br i1 %8, label %9, label %11

9:                                                ; preds = %6
  %10 = load i32, ptr %3, align 4
  call void @_ZN8RegisterC2Eib(ptr noundef nonnull align 4 dereferenceable(4) %2, i32 noundef %10, i1 noundef zeroext false)
  br label %12

11:                                               ; preds = %6, %1
  call void @llvm.memcpy.p0.p0.i64(ptr align 4 %2, ptr align 4 @_ZL5noreg, i64 4, i1 false)
  br label %12

12:                                               ; preds = %11, %9
  %13 = getelementptr inbounds %class.Register, ptr %2, i32 0, i32 0
  %14 = load i32, ptr %13, align 4
  ret i32 %14
}

; Function Attrs: mustprogress nounwind uwtable
define linkonce_odr hidden i32 @_Z14as_XMMRegisteri(i32 noundef %0) #1 comdat {
  %2 = alloca %class.XMMRegister, align 4
  %3 = alloca i32, align 4
  store i32 %0, ptr %3, align 4
  %4 = load i32, ptr %3, align 4
  %5 = icmp sle i32 0, %4
  br i1 %5, label %6, label %11

6:                                                ; preds = %1
  %7 = load i32, ptr %3, align 4
  %8 = icmp slt i32 %7, 32
  br i1 %8, label %9, label %11

9:                                                ; preds = %6
  %10 = load i32, ptr %3, align 4
  call void @_ZN11XMMRegisterC2Eib(ptr noundef nonnull align 4 dereferenceable(4) %2, i32 noundef %10, i1 noundef zeroext false)
  br label %12

11:                                               ; preds = %6, %1
  call void @llvm.memcpy.p0.p0.i64(ptr align 4 %2, ptr align 4 @_ZL6xnoreg, i64 4, i1 false)
  br label %12

12:                                               ; preds = %11, %9
  %13 = getelementptr inbounds %class.XMMRegister, ptr %2, i32 0, i32 0
  %14 = load i32, ptr %13, align 4
  ret i32 %14
}

; Function Attrs: mustprogress nounwind uwtable
define linkonce_odr hidden noundef i32 @_Z22vector_length_encodingi(i32 noundef %0) #1 comdat {
  %2 = alloca i32, align 4
  %3 = alloca i32, align 4
  store i32 %0, ptr %3, align 4
  %4 = load i32, ptr %3, align 4
  switch i32 %4, label %8 [
    i32 4, label %5
    i32 8, label %5
    i32 16, label %5
    i32 32, label %6
    i32 64, label %7
  ]

5:                                                ; preds = %1, %1, %1
  store i32 0, ptr %2, align 4
  br label %12

6:                                                ; preds = %1
  store i32 1, ptr %2, align 4
  br label %12

7:                                                ; preds = %1
  store i32 2, ptr %2, align 4
  br label %12

8:                                                ; preds = %1
  br label %9

9:                                                ; preds = %8
  %10 = load ptr, ptr @g_assert_poison, align 8
  store i8 88, ptr %10, align 1
  call void @_Z28report_should_not_reach_herePKci(ptr noundef @.str.22, i32 noundef 1228) #8
  unreachable

11:                                               ; No predecessors!
  store i32 4, ptr %2, align 4
  br label %12

12:                                               ; preds = %11, %7, %6, %5
  %13 = load i32, ptr %2, align 4
  ret i32 %13
}

; Function Attrs: mustprogress nounwind uwtable
define linkonce_odr hidden i32 @_ZNK8MachOper11as_RegisterEP13PhaseRegAllocPK4Nodei(ptr noundef nonnull align 8 dereferenceable(8) %0, ptr noundef %1, ptr noundef %2, i32 noundef %3) #1 comdat align 2 {
  %5 = alloca %class.Register, align 4
  %6 = alloca ptr, align 8
  %7 = alloca ptr, align 8
  %8 = alloca ptr, align 8
  %9 = alloca i32, align 4
  store ptr %0, ptr %6, align 8
  store ptr %1, ptr %7, align 8
  store ptr %2, ptr %8, align 8
  store i32 %3, ptr %9, align 4
  %10 = load ptr, ptr %6, align 8
  %11 = load ptr, ptr %7, align 8
  %12 = load ptr, ptr %8, align 8
  %13 = load i32, ptr %9, align 4
  %14 = load ptr, ptr %10, align 8
  %15 = getelementptr inbounds ptr, ptr %14, i64 5
  %16 = load ptr, ptr %15, align 8
  %17 = call noundef i32 %16(ptr noundef nonnull align 8 dereferenceable(8) %10, ptr noundef %11, ptr noundef %12, i32 noundef %13)
  %18 = call i32 @_Z11as_Registeri(i32 noundef %17)
  %19 = getelementptr inbounds %class.Register, ptr %5, i32 0, i32 0
  store i32 %18, ptr %19, align 4
  %20 = getelementptr inbounds %class.Register, ptr %5, i32 0, i32 0
  %21 = load i32, ptr %20, align 4
  ret i32 %21
}

; Function Attrs: mustprogress nounwind uwtable
define linkonce_odr hidden i32 @_ZNK8MachOper14as_XMMRegisterEP13PhaseRegAllocPK4Nodei(ptr noundef nonnull align 8 dereferenceable(8) %0, ptr noundef %1, ptr noundef %2, i32 noundef %3) #1 comdat align 2 {
  %5 = alloca %class.XMMRegister, align 4
  %6 = alloca ptr, align 8
  %7 = alloca ptr, align 8
  %8 = alloca ptr, align 8
  %9 = alloca i32, align 4
  store ptr %0, ptr %6, align 8
  store ptr %1, ptr %7, align 8
  store ptr %2, ptr %8, align 8
  store i32 %3, ptr %9, align 4
  %10 = load ptr, ptr %6, align 8
  %11 = load ptr, ptr %7, align 8
  %12 = load ptr, ptr %8, align 8
  %13 = load i32, ptr %9, align 4
  %14 = load ptr, ptr %10, align 8
  %15 = getelementptr inbounds ptr, ptr %14, i64 5
  %16 = load ptr, ptr %15, align 8
  %17 = call noundef i32 %16(ptr noundef nonnull align 8 dereferenceable(8) %10, ptr noundef %11, ptr noundef %12, i32 noundef %13)
  %18 = call i32 @_Z14as_XMMRegisteri(i32 noundef %17)
  %19 = getelementptr inbounds %class.XMMRegister, ptr %5, i32 0, i32 0
  store i32 %18, ptr %19, align 4
  %20 = getelementptr inbounds %class.XMMRegister, ptr %5, i32 0, i32 0
  %21 = load i32, ptr %20, align 4
  ret i32 %21
}

; Function Attrs: mustprogress nounwind uwtable
define internal noundef i32 @_ZL22vector_length_encodingPK4Node(ptr noundef %0) #1 {
  %2 = alloca ptr, align 8
  store ptr %0, ptr %2, align 8
  %3 = load ptr, ptr %2, align 8
  %4 = call noundef i32 @_ZN7Matcher22vector_length_in_bytesEPK4Node(ptr noundef %3)
  %5 = call noundef i32 @_Z22vector_length_encodingi(i32 noundef %4)
  ret i32 %5
}

; Function Attrs: mustprogress nounwind uwtable
define linkonce_odr hidden noundef ptr @_ZNK21vcompress_reg_avxNode10opnd_arrayEj(ptr noundef nonnull align 8 dereferenceable(136) %0, i32 noundef %1) #1 comdat align 2 {
  %3 = alloca ptr, align 8
  %4 = alloca i32, align 4
  store ptr %0, ptr %3, align 8
  store i32 %1, ptr %4, align 4
  %5 = load ptr, ptr %3, align 8
  %6 = getelementptr inbounds %class.vcompress_reg_avxNode, ptr %5, i32 0, i32 1
  %7 = load i32, ptr %4, align 4
  %8 = zext i32 %7 to i64
  %9 = getelementptr inbounds [8 x ptr], ptr %6, i64 0, i64 %8
  %10 = load ptr, ptr %9, align 8
  ret ptr %10
}

; Function Attrs: mustprogress nounwind uwtable
define hidden void @_ZNK21vcompress_reg_avxNode4emitEP17C2_MacroAssemblerP13PhaseRegAlloc(ptr noundef nonnull align 8 dereferenceable(136) %0, ptr noundef %1, ptr noundef %2) unnamed_addr #1 align 2 {
  %4 = alloca ptr, align 8
  %5 = alloca ptr, align 8
  %6 = alloca ptr, align 8
  %7 = alloca i32, align 4
  %8 = alloca i32, align 4
  %9 = alloca i32, align 4
  %10 = alloca i32, align 4
  %11 = alloca i32, align 4
  %12 = alloca i32, align 4
  %13 = alloca i32, align 4
  %14 = alloca i32, align 4
  %15 = alloca i32, align 4
  %16 = alloca i32, align 4
  %17 = alloca i8, align 1
  %18 = alloca %class.XMMRegister, align 4
  %19 = alloca %class.XMMRegister, align 4
  %20 = alloca %class.XMMRegister, align 4
  %21 = alloca %class.Register, align 4
  %22 = alloca %class.Register, align 4
  %23 = alloca %class.XMMRegister, align 4
  %24 = alloca %class.XMMRegister, align 4
  store ptr %0, ptr %4, align 8
  store ptr %1, ptr %5, align 8
  store ptr %2, ptr %6, align 8
  %25 = load ptr, ptr %4, align 8
  store i32 1, ptr %7, align 4
  store i32 1, ptr %8, align 4
  %26 = load i32, ptr %8, align 4
  %27 = call noundef ptr @_ZNK21vcompress_reg_avxNode10opnd_arrayEj(ptr noundef nonnull align 8 dereferenceable(136) %25, i32 noundef 1)
  %28 = load ptr, ptr %27, align 8
  %29 = getelementptr inbounds ptr, ptr %28, i64 1
  %30 = load ptr, ptr %29, align 8
  %31 = call noundef i32 %30(ptr noundef nonnull align 8 dereferenceable(8) %27)
  %32 = add i32 %26, %31
  store i32 %32, ptr %9, align 4
  %33 = load i32, ptr %9, align 4
  %34 = call noundef ptr @_ZNK21vcompress_reg_avxNode10opnd_arrayEj(ptr noundef nonnull align 8 dereferenceable(136) %25, i32 noundef 2)
  %35 = load ptr, ptr %34, align 8
  %36 = getelementptr inbounds ptr, ptr %35, i64 1
  %37 = load ptr, ptr %36, align 8
  %38 = call noundef i32 %37(ptr noundef nonnull align 8 dereferenceable(8) %34)
  %39 = add i32 %33, %38
  store i32 %39, ptr %10, align 4
  %40 = load i32, ptr %10, align 4
  %41 = call noundef ptr @_ZNK21vcompress_reg_avxNode10opnd_arrayEj(ptr noundef nonnull align 8 dereferenceable(136) %25, i32 noundef 3)
  %42 = load ptr, ptr %41, align 8
  %43 = getelementptr inbounds ptr, ptr %42, i64 1
  %44 = load ptr, ptr %43, align 8
  %45 = call noundef i32 %44(ptr noundef nonnull align 8 dereferenceable(8) %41)
  %46 = add i32 %40, %45
  store i32 %46, ptr %11, align 4
  %47 = load i32, ptr %11, align 4
  %48 = call noundef ptr @_ZNK21vcompress_reg_avxNode10opnd_arrayEj(ptr noundef nonnull align 8 dereferenceable(136) %25, i32 noundef 4)
  %49 = load ptr, ptr %48, align 8
  %50 = getelementptr inbounds ptr, ptr %49, i64 1
  %51 = load ptr, ptr %50, align 8
  %52 = call noundef i32 %51(ptr noundef nonnull align 8 dereferenceable(8) %48)
  %53 = add i32 %47, %52
  store i32 %53, ptr %12, align 4
  %54 = load i32, ptr %12, align 4
  %55 = call noundef ptr @_ZNK21vcompress_reg_avxNode10opnd_arrayEj(ptr noundef nonnull align 8 dereferenceable(136) %25, i32 noundef 5)
  %56 = load ptr, ptr %55, align 8
  %57 = getelementptr inbounds ptr, ptr %56, i64 1
  %58 = load ptr, ptr %57, align 8
  %59 = call noundef i32 %58(ptr noundef nonnull align 8 dereferenceable(8) %55)
  %60 = add i32 %54, %59
  store i32 %60, ptr %13, align 4
  %61 = load i32, ptr %13, align 4
  %62 = call noundef ptr @_ZNK21vcompress_reg_avxNode10opnd_arrayEj(ptr noundef nonnull align 8 dereferenceable(136) %25, i32 noundef 6)
  %63 = load ptr, ptr %62, align 8
  %64 = getelementptr inbounds ptr, ptr %63, i64 1
  %65 = load ptr, ptr %64, align 8
  %66 = call noundef i32 %65(ptr noundef nonnull align 8 dereferenceable(8) %62)
  %67 = add i32 %61, %66
  store i32 %67, ptr %14, align 4
  %68 = load ptr, ptr %25, align 8
  %69 = getelementptr inbounds ptr, ptr %68, i64 41
  %70 = load ptr, ptr %69, align 8
  %71 = call noundef i32 %70(ptr noundef nonnull align 8 dereferenceable(136) %25)
  store i32 %71, ptr %15, align 4
  %72 = call noundef i32 @_ZL22vector_length_encodingPK4Node(ptr noundef %25)
  store i32 %72, ptr %16, align 4
  %73 = call noundef zeroext i8 @_ZN7Matcher25vector_element_basic_typeEPK4Node(ptr noundef %25)
  store i8 %73, ptr %17, align 1
  %74 = load ptr, ptr %5, align 8
  %75 = load i32, ptr %15, align 4
  %76 = call noundef ptr @_ZNK21vcompress_reg_avxNode10opnd_arrayEj(ptr noundef nonnull align 8 dereferenceable(136) %25, i32 noundef 3)
  %77 = load ptr, ptr %6, align 8
  %78 = load i32, ptr %10, align 4
  %79 = call i32 @_ZNK8MachOper14as_XMMRegisterEP13PhaseRegAllocPK4Nodei(ptr noundef nonnull align 8 dereferenceable(8) %76, ptr noundef %77, ptr noundef %25, i32 noundef %78)
  %80 = getelementptr inbounds %class.XMMRegister, ptr %18, i32 0, i32 0
  store i32 %79, ptr %80, align 4
  %81 = call noundef ptr @_ZNK21vcompress_reg_avxNode10opnd_arrayEj(ptr noundef nonnull align 8 dereferenceable(136) %25, i32 noundef 1)
  %82 = load ptr, ptr %6, align 8
  %83 = load i32, ptr %8, align 4
  %84 = call i32 @_ZNK8MachOper14as_XMMRegisterEP13PhaseRegAllocPK4Nodei(ptr noundef nonnull align 8 dereferenceable(8) %81, ptr noundef %82, ptr noundef %25, i32 noundef %83)
  %85 = getelementptr inbounds %class.XMMRegister, ptr %19, i32 0, i32 0
  store i32 %84, ptr %85, align 4
  %86 = call noundef ptr @_ZNK21vcompress_reg_avxNode10opnd_arrayEj(ptr noundef nonnull align 8 dereferenceable(136) %25, i32 noundef 2)
  %87 = load ptr, ptr %6, align 8
  %88 = load i32, ptr %9, align 4
  %89 = call i32 @_ZNK8MachOper14as_XMMRegisterEP13PhaseRegAllocPK4Nodei(ptr noundef nonnull align 8 dereferenceable(8) %86, ptr noundef %87, ptr noundef %25, i32 noundef %88)
  %90 = getelementptr inbounds %class.XMMRegister, ptr %20, i32 0, i32 0
  store i32 %89, ptr %90, align 4
  %91 = call noundef ptr @_ZNK21vcompress_reg_avxNode10opnd_arrayEj(ptr noundef nonnull align 8 dereferenceable(136) %25, i32 noundef 4)
  %92 = load ptr, ptr %6, align 8
  %93 = load i32, ptr %11, align 4
  %94 = call i32 @_ZNK8MachOper11as_RegisterEP13PhaseRegAllocPK4Nodei(ptr noundef nonnull align 8 dereferenceable(8) %91, ptr noundef %92, ptr noundef %25, i32 noundef %93)
  %95 = getelementptr inbounds %class.Register, ptr %21, i32 0, i32 0
  store i32 %94, ptr %95, align 4
  %96 = call noundef ptr @_ZNK21vcompress_reg_avxNode10opnd_arrayEj(ptr noundef nonnull align 8 dereferenceable(136) %25, i32 noundef 5)
  %97 = load ptr, ptr %6, align 8
  %98 = load i32, ptr %12, align 4
  %99 = call i32 @_ZNK8MachOper11as_RegisterEP13PhaseRegAllocPK4Nodei(ptr noundef nonnull align 8 dereferenceable(8) %96, ptr noundef %97, ptr noundef %25, i32 noundef %98)
  %100 = getelementptr inbounds %class.Register, ptr %22, i32 0, i32 0
  store i32 %99, ptr %100, align 4
  %101 = call noundef ptr @_ZNK21vcompress_reg_avxNode10opnd_arrayEj(ptr noundef nonnull align 8 dereferenceable(136) %25, i32 noundef 6)
  %102 = load ptr, ptr %6, align 8
  %103 = load i32, ptr %13, align 4
  %104 = call i32 @_ZNK8MachOper14as_XMMRegisterEP13PhaseRegAllocPK4Nodei(ptr noundef nonnull align 8 dereferenceable(8) %101, ptr noundef %102, ptr noundef %25, i32 noundef %103)
  %105 = getelementptr inbounds %class.XMMRegister, ptr %23, i32 0, i32 0
  store i32 %104, ptr %105, align 4
  %106 = call noundef ptr @_ZNK21vcompress_reg_avxNode10opnd_arrayEj(ptr noundef nonnull align 8 dereferenceable(136) %25, i32 noundef 7)
  %107 = load ptr, ptr %6, align 8
  %108 = load i32, ptr %14, align 4
  %109 = call i32 @_ZNK8MachOper14as_XMMRegisterEP13PhaseRegAllocPK4Nodei(ptr noundef nonnull align 8 dereferenceable(8) %106, ptr noundef %107, ptr noundef %25, i32 noundef %108)
  %110 = getelementptr inbounds %class.XMMRegister, ptr %24, i32 0, i32 0
  store i32 %109, ptr %110, align 4
  %111 = load i8, ptr %17, align 1
  %112 = load i32, ptr %16, align 4
  %113 = getelementptr inbounds %class.XMMRegister, ptr %18, i32 0, i32 0
  %114 = load i32, ptr %113, align 4
  %115 = getelementptr inbounds %class.XMMRegister, ptr %19, i32 0, i32 0
  %116 = load i32, ptr %115, align 4
  %117 = getelementptr inbounds %class.XMMRegister, ptr %20, i32 0, i32 0
  %118 = load i32, ptr %117, align 4
  %119 = getelementptr inbounds %class.Register, ptr %21, i32 0, i32 0
  %120 = load i32, ptr %119, align 4
  %121 = getelementptr inbounds %class.Register, ptr %22, i32 0, i32 0
  %122 = load i32, ptr %121, align 4
  %123 = getelementptr inbounds %class.XMMRegister, ptr %23, i32 0, i32 0
  %124 = load i32, ptr %123, align 4
  %125 = getelementptr inbounds %class.XMMRegister, ptr %24, i32 0, i32 0
  %126 = load i32, ptr %125, align 4
  call void @_ZN17C2_MacroAssembler27vector_compress_expand_avx2Ei11XMMRegisterS0_S0_8RegisterS1_S0_S0_9BasicTypei(ptr noundef nonnull align 8 dereferenceable(40) %74, i32 noundef %75, i32 %114, i32 %116, i32 %118, i32 %120, i32 %122, i32 %124, i32 %126, i8 noundef zeroext %111, i32 noundef %112)
  ret void
}