; Function Attrs: mustprogress nounwind uwtable
define hidden void @_ZNK21vcompress_reg_avxNode4emitEP17C2_MacroAssemblerP13PhaseRegAlloc(ptr noundef nonnull align 8 dereferenceable(136) %0, ptr noundef %1, ptr noundef %2) unnamed_addr #3 align 2 {
  %4 = getelementptr inbounds i8, ptr %0, i64 80
  %5 = load ptr, ptr %4, align 8
  %6 = load ptr, ptr %5, align 8
  %7 = getelementptr inbounds i8, ptr %6, i64 8
  %8 = load ptr, ptr %7, align 8
  %9 = tail call noundef i32 %8(ptr noundef nonnull align 8 dereferenceable(8) %5) #23
  %10 = getelementptr inbounds i8, ptr %0, i64 88
  %11 = load ptr, ptr %10, align 8
  %12 = load ptr, ptr %11, align 8
  %13 = getelementptr inbounds i8, ptr %12, i64 8
  %14 = load ptr, ptr %13, align 8
  %15 = tail call noundef i32 %14(ptr noundef nonnull align 8 dereferenceable(8) %11) #23
  %16 = getelementptr inbounds i8, ptr %0, i64 96
  %17 = load ptr, ptr %16, align 8
  %18 = load ptr, ptr %17, align 8
  %19 = getelementptr inbounds i8, ptr %18, i64 8
  %20 = load ptr, ptr %19, align 8
  %21 = tail call noundef i32 %20(ptr noundef nonnull align 8 dereferenceable(8) %17) #23
  %22 = getelementptr inbounds i8, ptr %0, i64 104
  %23 = load ptr, ptr %22, align 8
  %24 = load ptr, ptr %23, align 8
  %25 = getelementptr inbounds i8, ptr %24, i64 8
  %26 = load ptr, ptr %25, align 8
  %27 = tail call noundef i32 %26(ptr noundef nonnull align 8 dereferenceable(8) %23) #23
  %28 = getelementptr inbounds i8, ptr %0, i64 112
  %29 = load ptr, ptr %28, align 8
  %30 = load ptr, ptr %29, align 8
  %31 = getelementptr inbounds i8, ptr %30, i64 8
  %32 = load ptr, ptr %31, align 8
  %33 = tail call noundef i32 %32(ptr noundef nonnull align 8 dereferenceable(8) %29) #23
  %34 = getelementptr inbounds i8, ptr %0, i64 120
  %35 = load ptr, ptr %34, align 8
  %36 = load ptr, ptr %35, align 8
  %37 = getelementptr inbounds i8, ptr %36, i64 8
  %38 = load ptr, ptr %37, align 8
  %39 = tail call noundef i32 %38(ptr noundef nonnull align 8 dereferenceable(8) %35) #23
  %40 = load ptr, ptr %0, align 8
  %41 = getelementptr inbounds i8, ptr %40, i64 328
  %42 = load ptr, ptr %41, align 8
  %43 = tail call noundef i32 %42(ptr noundef nonnull align 8 dereferenceable(136) %0) #23
  %44 = tail call noundef i32 @_ZN7Matcher22vector_length_in_bytesEPK4Node(ptr noundef nonnull %0) #23
  switch i32 %44, label %47 [
    i32 4, label %_ZL22vector_length_encodingPK4Node.exit
    i32 8, label %_ZL22vector_length_encodingPK4Node.exit
    i32 16, label %_ZL22vector_length_encodingPK4Node.exit
    i32 32, label %45
    i32 64, label %46
  ]

45:                                               ; preds = %3
  br label %_ZL22vector_length_encodingPK4Node.exit

46:                                               ; preds = %3
  br label %_ZL22vector_length_encodingPK4Node.exit

47:                                               ; preds = %3
  %48 = load ptr, ptr @g_assert_poison, align 8
  store i8 88, ptr %48, align 1
  tail call void @_Z28report_should_not_reach_herePKci(ptr noundef nonnull @.str.22, i32 noundef 1228) #24
  unreachable

_ZL22vector_length_encodingPK4Node.exit:          ; preds = %3, %3, %3, %45, %46
  %.0.i.i = phi i32 [ 2, %46 ], [ 1, %45 ], [ 0, %3 ], [ 0, %3 ], [ 0, %3 ]
  %49 = add i32 %9, 1
  %50 = add i32 %15, %49
  %51 = add i32 %21, %50
  %52 = add i32 %27, %51
  %53 = add i32 %33, %52
  %54 = add i32 %39, %53
  %55 = tail call noundef zeroext i8 @_ZN7Matcher25vector_element_basic_typeEPK4Node(ptr noundef nonnull %0) #23
  %56 = load ptr, ptr %16, align 8
  %57 = load ptr, ptr %56, align 8
  %58 = getelementptr inbounds i8, ptr %57, i64 40
  %59 = load ptr, ptr %58, align 8
  %60 = tail call noundef i32 %59(ptr noundef nonnull align 8 dereferenceable(8) %56, ptr noundef %2, ptr noundef nonnull %0, i32 noundef %50) #23
  %or.cond.i.i = icmp ult i32 %60, 32
  %spec.select.i.i = select i1 %or.cond.i.i, i32 %60, i32 -1
  %61 = load ptr, ptr %4, align 8
  %62 = load ptr, ptr %61, align 8
  %63 = getelementptr inbounds i8, ptr %62, i64 40
  %64 = load ptr, ptr %63, align 8
  %65 = tail call noundef i32 %64(ptr noundef nonnull align 8 dereferenceable(8) %61, ptr noundef %2, ptr noundef nonnull %0, i32 noundef 1) #23
  %or.cond.i.i30 = icmp ult i32 %65, 32
  %spec.select.i.i31 = select i1 %or.cond.i.i30, i32 %65, i32 -1
  %66 = load ptr, ptr %10, align 8
  %67 = load ptr, ptr %66, align 8
  %68 = getelementptr inbounds i8, ptr %67, i64 40
  %69 = load ptr, ptr %68, align 8
  %70 = tail call noundef i32 %69(ptr noundef nonnull align 8 dereferenceable(8) %66, ptr noundef %2, ptr noundef nonnull %0, i32 noundef %49) #23
  %or.cond.i.i32 = icmp ult i32 %70, 32
  %spec.select.i.i33 = select i1 %or.cond.i.i32, i32 %70, i32 -1
  %71 = load ptr, ptr %22, align 8
  %72 = load ptr, ptr %71, align 8
  %73 = getelementptr inbounds i8, ptr %72, i64 40
  %74 = load ptr, ptr %73, align 8
  %75 = tail call noundef i32 %74(ptr noundef nonnull align 8 dereferenceable(8) %71, ptr noundef %2, ptr noundef nonnull %0, i32 noundef %51) #23
  %or.cond.i.i34 = icmp ult i32 %75, 32
  %spec.select.i.i35 = select i1 %or.cond.i.i34, i32 %75, i32 -1
  %76 = load ptr, ptr %28, align 8
  %77 = load ptr, ptr %76, align 8
  %78 = getelementptr inbounds i8, ptr %77, i64 40
  %79 = load ptr, ptr %78, align 8
  %80 = tail call noundef i32 %79(ptr noundef nonnull align 8 dereferenceable(8) %76, ptr noundef %2, ptr noundef nonnull %0, i32 noundef %52) #23
  %or.cond.i.i36 = icmp ult i32 %80, 32
  %spec.select.i.i37 = select i1 %or.cond.i.i36, i32 %80, i32 -1
  %81 = load ptr, ptr %34, align 8
  %82 = load ptr, ptr %81, align 8
  %83 = getelementptr inbounds i8, ptr %82, i64 40
  %84 = load ptr, ptr %83, align 8
  %85 = tail call noundef i32 %84(ptr noundef nonnull align 8 dereferenceable(8) %81, ptr noundef %2, ptr noundef nonnull %0, i32 noundef %53) #23
  %or.cond.i.i38 = icmp ult i32 %85, 32
  %spec.select.i.i39 = select i1 %or.cond.i.i38, i32 %85, i32 -1
  %86 = getelementptr inbounds i8, ptr %0, i64 128
  %87 = load ptr, ptr %86, align 8
  %88 = load ptr, ptr %87, align 8
  %89 = getelementptr inbounds i8, ptr %88, i64 40
  %90 = load ptr, ptr %89, align 8
  %91 = tail call noundef i32 %90(ptr noundef nonnull align 8 dereferenceable(8) %87, ptr noundef %2, ptr noundef nonnull %0, i32 noundef %54) #23
  %or.cond.i.i40 = icmp ult i32 %91, 32
  %spec.select.i.i41 = select i1 %or.cond.i.i40, i32 %91, i32 -1
  tail call void @_ZN17C2_MacroAssembler27vector_compress_expand_avx2Ei11XMMRegisterS0_S0_8RegisterS1_S0_S0_9BasicTypei(ptr noundef nonnull align 8 dereferenceable(40) %1, i32 noundef %43, i32 %spec.select.i.i, i32 %spec.select.i.i31, i32 %spec.select.i.i33, i32 %spec.select.i.i35, i32 %spec.select.i.i37, i32 %spec.select.i.i39, i32 %spec.select.i.i41, i8 noundef zeroext %55, i32 noundef %.0.i.i) #23
  ret void
}